target datalayout = "e-m:e-p270:32:32-p271:32:32-p272:64:64-i64:64-i128:128-f80:128-n8:16:32:64-S128"
target triple = "x86_64-pc-linux-gnu"

%class.QString = type { %struct.QArrayDataPointer }
%struct.QArrayDataPointer = type { ptr, ptr, i64 }
%class.ShowPacketBytesDialog = type { %class.WiresharkDialog.base, ptr, ptr, %class.QByteArray, %class.QString, %class.QString, ptr, ptr, ptr, i8, i32, i32, %class.QImage }
%class.WiresharkDialog.base = type <{ %class.GeometryStateDialog, ptr, i8, [7 x i8], %class.QString, %class.QList, i32, i8 }>
%class.GeometryStateDialog = type { %class.QDialog, %class.QString, ptr }
%class.QDialog = type { %class.QWidget }
%class.QWidget = type { %class.QObject, %class.QPaintDevice.base, ptr }
%class.QObject = type { ptr, %class.QScopedPointer }
%class.QScopedPointer = type { ptr }
%class.QPaintDevice.base = type <{ ptr, i16 }>
%class.QList = type { %struct.QArrayDataPointer.0 }
%struct.QArrayDataPointer.0 = type { ptr, ptr, i64 }
%class.QByteArray = type { %struct.QArrayDataPointer.1 }
%struct.QArrayDataPointer.1 = type { ptr, ptr, i64 }
%class.QImage = type { %class.QPaintDevice.base, ptr }
%class.Ui_ShowPacketBytesDialog = type { ptr, ptr, ptr, ptr, ptr, ptr, ptr, ptr, ptr, ptr, ptr, ptr, ptr, ptr, ptr, ptr, ptr, ptr, ptr }
%class.QEvent = type { ptr, i16, i8, i8, i8, i8, i16 }
%class.QKeyEvent = type <{ %class.QInputEvent, %class.QString, i32, i32, i32, i32, i16, [6 x i8] }>
%class.QInputEvent = type { %class.QEvent, ptr, i64, %class.QFlags.21, i32 }
%class.QFlags.21 = type { i32 }
%class.QFlag = type { i32 }

; Function Attrs: inlinehint mustprogress nounwind null_pointer_is_valid sspstrong uwtable
define linkonce_odr noundef i32 @_ZNK5QFlagcvjEv(ptr noundef align 4 dereferenceable_or_null(4) %0) #3 comdat align 2 {
  %2 = alloca ptr, align 8
  store ptr %0, ptr %2, align 8
  %3 = load ptr, ptr %2, align 8
  %4 = getelementptr inbounds nuw %class.QFlag, ptr %3, i32 0, i32 0
  %5 = load i32, ptr %4, align 4
  ret i32 %5
}

; Function Attrs: inlinehint mustprogress nounwind null_pointer_is_valid sspstrong uwtable
define linkonce_odr void @_ZN6QFlagsIN2Qt16KeyboardModifierEEC2E5QFlag(ptr noundef align 4 dereferenceable_or_null(4) %0, i32 %1) unnamed_addr #3 comdat align 2 {
  %3 = alloca %class.QFlag, align 4
  %4 = alloca ptr, align 8
  %5 = getelementptr inbounds nuw %class.QFlag, ptr %3, i32 0, i32 0
  store i32 %1, ptr %5, align 4
  store ptr %0, ptr %4, align 8
  %6 = load ptr, ptr %4, align 8
  %7 = getelementptr inbounds nuw %class.QFlags.21, ptr %6, i32 0, i32 0
  %8 = call noundef i32 @_ZNK5QFlagcvjEv(ptr noundef align 4 dereferenceable_or_null(4) %3) #13
  store i32 %8, ptr %7, align 4
  ret void
}

; Function Attrs: inlinehint mustprogress nounwind null_pointer_is_valid sspstrong uwtable
define linkonce_odr void @_ZN5QFlagC2Ej(ptr noundef align 4 dereferenceable_or_null(4) %0, i32 noundef %1) unnamed_addr #3 comdat align 2 {
  %3 = alloca ptr, align 8
  %4 = alloca i32, align 4
  store ptr %0, ptr %3, align 8
  store i32 %1, ptr %4, align 4
  %5 = load ptr, ptr %3, align 8
  %6 = getelementptr inbounds nuw %class.QFlag, ptr %5, i32 0, i32 0
  %7 = load i32, ptr %4, align 4
  store i32 %7, ptr %6, align 4
  ret void
}

; Function Attrs: inlinehint mustprogress nounwind null_pointer_is_valid sspstrong uwtable
define linkonce_odr noundef i32 @_ZNK6QFlagsIN2Qt16KeyboardModifierEEcvjEv(ptr noundef align 4 dereferenceable_or_null(4) %0) #3 comdat align 2 {
  %2 = alloca ptr, align 8
  store ptr %0, ptr %2, align 8
  %3 = load ptr, ptr %2, align 8
  %4 = getelementptr inbounds nuw %class.QFlags.21, ptr %3, i32 0, i32 0
  %5 = load i32, ptr %4, align 4
  ret i32 %5
}

; Function Attrs: inlinehint mustprogress nounwind null_pointer_is_valid sspstrong uwtable
define linkonce_odr i32 @_ZNK6QFlagsIN2Qt16KeyboardModifierEEanES1_(ptr noundef align 4 dereferenceable_or_null(4) %0, i32 noundef %1) #3 comdat align 2 {
  %3 = alloca %class.QFlags.21, align 4
  %4 = alloca ptr, align 8
  %5 = alloca i32, align 4
  %6 = alloca %class.QFlag, align 4
  store ptr %0, ptr %4, align 8
  store i32 %1, ptr %5, align 4
  %7 = load ptr, ptr %4, align 8
  %8 = getelementptr inbounds nuw %class.QFlags.21, ptr %7, i32 0, i32 0
  %9 = load i32, ptr %8, align 4
  %10 = load i32, ptr %5, align 4
  %11 = and i32 %9, %10
  call void @_ZN5QFlagC2Ej(ptr noundef align 4 dereferenceable_or_null(4) %6, i32 noundef %11) #13
  %12 = getelementptr inbounds nuw %class.QFlag, ptr %6, i32 0, i32 0
  %13 = load i32, ptr %12, align 4
  call void @_ZN6QFlagsIN2Qt16KeyboardModifierEEC2E5QFlag(ptr noundef align 4 dereferenceable_or_null(4) %3, i32 %13) #13
  %14 = getelementptr inbounds nuw %class.QFlags.21, ptr %3, i32 0, i32 0
  %15 = load i32, ptr %14, align 4
  ret i32 %15
}

; Function Attrs: inlinehint mustprogress null_pointer_is_valid sspstrong uwtable
define linkonce_odr void @_ZN7QWidget8setFocusEv(ptr noundef align 8 dereferenceable_or_null(40) %0) #8 comdat align 2 {
  %2 = alloca ptr, align 8
  store ptr %0, ptr %2, align 8
  %3 = load ptr, ptr %2, align 8
  call void @_ZN7QWidget8setFocusEN2Qt11FocusReasonE(ptr noundef align 8 dereferenceable_or_null(40) %3, i32 noundef 7)
  ret void
}

; Function Attrs: mustprogress nounwind null_pointer_is_valid sspstrong uwtable
define linkonce_odr noundef i32 @_ZNK9QKeyEvent3keyEv(ptr noundef align 8 dereferenceable_or_null(82) %0) #7 comdat align 2 {
  %2 = alloca ptr, align 8
  store ptr %0, ptr %2, align 8
  %3 = load ptr, ptr %2, align 8
  %4 = getelementptr inbounds nuw %class.QKeyEvent, ptr %3, i32 0, i32 2
  %5 = load i32, ptr %4, align 8
  ret i32 %5
}

; Function Attrs: mustprogress null_pointer_is_valid sspstrong uwtable
define void @_ZN21ShowPacketBytesDialog13keyPressEventEP9QKeyEvent(ptr noundef align 8 dereferenceable_or_null(296) %0, ptr noundef %1) unnamed_addr #0 align 2 {
  %3 = alloca ptr, align 8
  %4 = alloca ptr, align 8
  %5 = alloca %class.QFlags.21, align 4
  %6 = alloca %class.QFlags.21, align 4
  store ptr %0, ptr %3, align 8
  store ptr %1, ptr %4, align 8
  %7 = load ptr, ptr %3, align 8
  %8 = getelementptr inbounds nuw %class.ShowPacketBytesDialog, ptr %7, i32 0, i32 1
  %9 = load ptr, ptr %8, align 8
  %10 = getelementptr inbounds nuw %class.Ui_ShowPacketBytesDialog, ptr %9, i32 0, i32 15
  %11 = load ptr, ptr %10, align 8
  %12 = call noundef zeroext i1 @_ZNK7QWidget8hasFocusEv(ptr noundef align 8 dereferenceable_or_null(40) %11)
  br i1 %12, label %13, label %23

13:                                               ; preds = %2
  %14 = load ptr, ptr %4, align 8
  %15 = call noundef i32 @_ZNK9QKeyEvent3keyEv(ptr noundef align 8 dereferenceable_or_null(82) %14)
  %16 = icmp eq i32 %15, 16777221
  br i1 %16, label %21, label %17

17:                                               ; preds = %13
  %18 = load ptr, ptr %4, align 8
  %19 = call noundef i32 @_ZNK9QKeyEvent3keyEv(ptr noundef align 8 dereferenceable_or_null(82) %18)
  %20 = icmp eq i32 %19, 16777220
  br i1 %20, label %21, label %22

21:                                               ; preds = %17, %13
  call void @_ZN21ShowPacketBytesDialog8findTextEb(ptr noundef align 8 dereferenceable_or_null(296) %7, i1 noundef zeroext true)
  br label %63

22:                                               ; preds = %17
  br label %40

23:                                               ; preds = %2
  %24 = load ptr, ptr %4, align 8
  %25 = call noundef i32 @_ZNK9QKeyEvent3keyEv(ptr noundef align 8 dereferenceable_or_null(82) %24)
  %26 = icmp eq i32 %25, 47
  br i1 %26, label %30, label %27

27:                                               ; preds = %23
  %28 = load ptr, ptr %4, align 8
  %29 = call noundef zeroext i1 @_ZNK9QKeyEvent7matchesEN12QKeySequence11StandardKeyE(ptr noundef align 8 dereferenceable_or_null(82) %28, i32 noundef 22)
  br i1 %29, label %30, label %39

30:                                               ; preds = %27, %23
  %31 = getelementptr inbounds nuw %class.ShowPacketBytesDialog, ptr %7, i32 0, i32 1
  %32 = load ptr, ptr %31, align 8
  %33 = getelementptr inbounds nuw %class.Ui_ShowPacketBytesDialog, ptr %32, i32 0, i32 15
  %34 = load ptr, ptr %33, align 8
  call void @_ZN7QWidget8setFocusEv(ptr noundef align 8 dereferenceable_or_null(40) %34)
  %35 = getelementptr inbounds nuw %class.ShowPacketBytesDialog, ptr %7, i32 0, i32 1
  %36 = load ptr, ptr %35, align 8
  %37 = getelementptr inbounds nuw %class.Ui_ShowPacketBytesDialog, ptr %36, i32 0, i32 15
  %38 = load ptr, ptr %37, align 8
  call void @_ZN9QLineEdit9selectAllEv(ptr noundef align 8 dereferenceable_or_null(40) %38)
  br label %39

39:                                               ; preds = %30, %27
  br label %63

40:                                               ; preds = %22
  %41 = load ptr, ptr %4, align 8
  %42 = call noundef i32 @_ZNK9QKeyEvent3keyEv(ptr noundef align 8 dereferenceable_or_null(82) %41)
  %43 = icmp eq i32 %42, 16777266
  call void @llvm.lifetime.start.p0(i64 4, ptr %5) #13
  call void @llvm.lifetime.start.p0(i64 4, ptr %6) #13
  br i1 %43, label %58, label %44

44:                                               ; preds = %40
  %45 = load ptr, ptr %4, align 8
  %46 = call noundef i32 @_ZNK9QKeyEvent3keyEv(ptr noundef align 8 dereferenceable_or_null(82) %45)
  %47 = icmp eq i32 %46, 78
  br i1 %47, label %48, label %56

48:                                               ; preds = %44
  %49 = load ptr, ptr %4, align 8
  %50 = call i32 @_ZNK9QKeyEvent9modifiersEv(ptr noundef align 8 dereferenceable_or_null(82) %49)
  %51 = getelementptr inbounds nuw %class.QFlags.21, ptr %6, i32 0, i32 0
  store i32 %50, ptr %51, align 4
  %52 = call i32 @_ZNK6QFlagsIN2Qt16KeyboardModifierEEanES1_(ptr noundef align 4 dereferenceable_or_null(4) %6, i32 noundef 67108864) #13
  %53 = getelementptr inbounds nuw %class.QFlags.21, ptr %5, i32 0, i32 0
  store i32 %52, ptr %53, align 4
  %54 = call noundef i32 @_ZNK6QFlagsIN2Qt16KeyboardModifierEEcvjEv(ptr noundef align 4 dereferenceable_or_null(4) %5) #13
  %55 = icmp ne i32 %54, 0
  br label %56

56:                                               ; preds = %48, %44
  %57 = phi i1 [ false, %44 ], [ %55, %48 ]
  br label %58

58:                                               ; preds = %56, %40
  %59 = phi i1 [ true, %40 ], [ %57, %56 ]
  call void @llvm.lifetime.end.p0(i64 4, ptr %6) #13
  call void @llvm.lifetime.end.p0(i64 4, ptr %5) #13
  br i1 %59, label %60, label %61

60:                                               ; preds = %58
  call void @_ZN21ShowPacketBytesDialog8findTextEb(ptr noundef align 8 dereferenceable_or_null(296) %7, i1 noundef zeroext true)
  br label %63

61:                                               ; preds = %58
  %62 = load ptr, ptr %4, align 8
  call void @_ZN7QDialog13keyPressEventEP9QKeyEvent(ptr noundef align 8 dereferenceable_or_null(40) %7, ptr noundef %62)
  br label %63

63:                                               ; preds = %61, %60, %39, %21
  ret void
}