; Function Attrs: mustprogress null_pointer_is_valid sspstrong uwtable
define void @_ZN21ShowPacketBytesDialog13keyPressEventEP9QKeyEvent(ptr noundef align 8 dereferenceable_or_null(296) %0, ptr noundef %1) unnamed_addr #0 align 2 {
  %3 = getelementptr inbounds nuw i8, ptr %0, i64 144
  %4 = load ptr, ptr %3, align 8
  %5 = getelementptr inbounds nuw i8, ptr %4, i64 120
  %6 = load ptr, ptr %5, align 8
  %7 = tail call noundef zeroext i1 @_ZNK7QWidget8hasFocusEv(ptr noundef align 8 dereferenceable_or_null(40) %6)
  %8 = getelementptr inbounds nuw i8, ptr %1, i64 64
  %9 = load i32, ptr %8, align 8
  br i1 %7, label %10, label %12

10:                                               ; preds = %2
  switch i32 %9, label %.critedge2 [
    i32 16777221, label %11
    i32 16777220, label %11
    i32 16777266, label %.critedge
    i32 78, label %23
  ]

11:                                               ; preds = %10, %10
  tail call void @_ZN21ShowPacketBytesDialog8findTextEb(ptr noundef align 8 dereferenceable_or_null(296) %0, i1 noundef zeroext true)
  br label %26

12:                                               ; preds = %2
  %13 = icmp eq i32 %9, 47
  br i1 %13, label %16, label %14

14:                                               ; preds = %12
  %15 = tail call noundef zeroext i1 @_ZNK9QKeyEvent7matchesEN12QKeySequence11StandardKeyE(ptr noundef align 8 dereferenceable_or_null(82) %1, i32 noundef 22)
  br i1 %15, label %16, label %26

16:                                               ; preds = %14, %12
  %17 = load ptr, ptr %3, align 8
  %18 = getelementptr inbounds nuw i8, ptr %17, i64 120
  %19 = load ptr, ptr %18, align 8
  tail call void @_ZN7QWidget8setFocusEN2Qt11FocusReasonE(ptr noundef align 8 dereferenceable_or_null(40) %19, i32 noundef 7)
  %20 = load ptr, ptr %3, align 8
  %21 = getelementptr inbounds nuw i8, ptr %20, i64 120
  %22 = load ptr, ptr %21, align 8
  tail call void @_ZN9QLineEdit9selectAllEv(ptr noundef align 8 dereferenceable_or_null(40) %22)
  br label %26

23:                                               ; preds = %10
  %24 = tail call i32 @_ZNK9QKeyEvent9modifiersEv(ptr noundef align 8 dereferenceable_or_null(82) %1)
  %25 = and i32 %24, 67108864
  %.not = icmp eq i32 %25, 0
  br i1 %.not, label %.critedge2, label %.critedge

.critedge:                                        ; preds = %10, %23
  tail call void @_ZN21ShowPacketBytesDialog8findTextEb(ptr noundef align 8 dereferenceable_or_null(296) %0, i1 noundef zeroext true)
  br label %26

.critedge2:                                       ; preds = %10, %23
  tail call void @_ZN7QDialog13keyPressEventEP9QKeyEvent(ptr noundef align 8 dereferenceable_or_null(40) %0, ptr noundef %1)
  br label %26

26:                                               ; preds = %14, %16, %.critedge2, %.critedge, %11
  ret void
}